target datalayout = "e-m:e-p270:32:32-p271:32:32-p272:64:64-i64:64-i128:128-f80:128-n8:16:32:64-S128"
target triple = "x86_64-pc-linux-gnu"

%struct.Qureg = type { i32, i32, i32, i64, i64, i32, i32, %struct.ComplexArray, %struct.ComplexArray, %struct.ComplexArray, ptr, ptr, ptr, ptr, ptr, ptr }
%struct.ComplexArray = type { ptr, ptr }

@__func__.mixNonTPTwoQubitKrausMap = private unnamed_addr constant [25 x i8] c"mixNonTPTwoQubitKrausMap\00", align 1
@.str.41 = private unnamed_addr constant [95 x i8] c"Here, an undisclosed non-trace-preserving two-qubit Kraus map was effected on qubits %d and %d\00", align 1

; Function Attrs: nounwind uwtable
define void @mixNonTPTwoQubitKrausMap(ptr noundef byval(%struct.Qureg) align 8 %0, i32 noundef %1, i32 noundef %2, ptr noundef %3, i32 noundef %4) #0 {
  %6 = alloca i32, align 4
  %7 = alloca i32, align 4
  %8 = alloca ptr, align 8
  %9 = alloca i32, align 4
  %10 = alloca [2 x i32], align 4
  store i32 %1, ptr %6, align 4, !tbaa !4
  store i32 %2, ptr %7, align 4, !tbaa !4
  store ptr %3, ptr %8, align 8, !tbaa !41
  store i32 %4, ptr %9, align 4, !tbaa !4
  call void @validateDensityMatrQureg(ptr noundef byval(%struct.Qureg) align 8 %0, ptr noundef @__func__.mixNonTPTwoQubitKrausMap)
  %11 = load i32, ptr %6, align 4, !tbaa !4
  store i32 %11, ptr %10, align 4, !tbaa !4
  %12 = getelementptr inbounds i32, ptr %10, i64 1
  %13 = load i32, ptr %7, align 4, !tbaa !4
  store i32 %13, ptr %12, align 4, !tbaa !4
  %14 = getelementptr inbounds [2 x i32], ptr %10, i64 0, i64 0
  call void @validateMultiTargets(ptr noundef byval(%struct.Qureg) align 8 %0, ptr noundef %14, i32 noundef 2, ptr noundef @__func__.mixNonTPTwoQubitKrausMap)
  %15 = load ptr, ptr %8, align 8, !tbaa !41
  %16 = load i32, ptr %9, align 4, !tbaa !4
  call void @validateTwoQubitKrausMapDimensions(ptr noundef byval(%struct.Qureg) align 8 %0, ptr noundef %15, i32 noundef %16, ptr noundef @__func__.mixNonTPTwoQubitKrausMap)
  %17 = load i32, ptr %6, align 4, !tbaa !4
  %18 = load i32, ptr %7, align 4, !tbaa !4
  %19 = load ptr, ptr %8, align 8, !tbaa !41
  %20 = load i32, ptr %9, align 4, !tbaa !4
  call void @densmatr_mixTwoQubitKrausMap(ptr noundef byval(%struct.Qureg) align 8 %0, i32 noundef %17, i32 noundef %18, ptr noundef %19, i32 noundef %20)
  %21 = load i32, ptr %6, align 4, !tbaa !4
  %22 = load i32, ptr %7, align 4, !tbaa !4
  call void (ptr, ptr, ...) @qasm_recordComment(ptr noundef byval(%struct.Qureg) align 8 %0, ptr noundef @.str.41, i32 noundef %21, i32 noundef %22)
  ret void
}