; Function Attrs: nounwind uwtable
define void @mixNonTPTwoQubitKrausMap(ptr noundef readonly byval(%struct.Qureg) align 8 captures(none) %0, i32 noundef %1, i32 noundef %2, ptr noundef %3, i32 noundef %4) local_unnamed_addr #0 {
  %6 = alloca [2 x i32], align 4
  tail call void @validateDensityMatrQureg(ptr noundef nonnull byval(%struct.Qureg) align 8 %0, ptr noundef nonnull @__func__.mixNonTPTwoQubitKrausMap) #17
  store i32 %1, ptr %6, align 4, !tbaa !20
  %7 = getelementptr inbounds nuw i8, ptr %6, i64 4
  store i32 %2, ptr %7, align 4, !tbaa !20
  call void @validateMultiTargets(ptr noundef nonnull byval(%struct.Qureg) align 8 %0, ptr noundef nonnull %6, i32 noundef 2, ptr noundef nonnull @__func__.mixNonTPTwoQubitKrausMap) #17
  call void @validateTwoQubitKrausMapDimensions(ptr noundef nonnull byval(%struct.Qureg) align 8 %0, ptr noundef %3, i32 noundef %4, ptr noundef nonnull @__func__.mixNonTPTwoQubitKrausMap) #17
  call void @densmatr_mixTwoQubitKrausMap(ptr noundef nonnull byval(%struct.Qureg) align 8 %0, i32 noundef %1, i32 noundef %2, ptr noundef %3, i32 noundef %4) #17
  call void (ptr, ptr, ...) @qasm_recordComment(ptr noundef nonnull byval(%struct.Qureg) align 8 %0, ptr noundef nonnull @.str.41, i32 noundef %1, i32 noundef %2) #17
  ret void
}